(lp1
(lp2
I486
aI0
aI0
aa(lp3
I1555
aI0
aI0
aa(lp4
I487
aI0
aI0
aa(lp5
I1679
aI0
aI0
aa(lp6
I1419
aI0
aI0
aa(lp7
I1233
aI0
aI0
aa(lp8
I1052
aI0
aI0
aa(lp9
I724
aI0
aI0
aa(lp10
I689
aI0
aI0
aa(lp11
I1079
aI0
aI0
aa(lp12
I913
aI0
aI0
aa(lp13
I1601
aI0
aI0
aa(lp14
I822
aI0
aI0
aa(lp15
I777
aI0
aI0
aa(lp16
I2287
aI0
aI0
aa(lp17
I772
aI0
aI0
aa(lp18
I650
aI0
aI0
aa(lp19
I387
aI0
aI0
aa(lp20
I560
aI0
aI0
aa(lp21
I835
aI0
aI0
aa(lp22
I853
aI0
aI0
aa(lp23
I1690
aI0
aI0
aa(lp24
I1436
aI0
aI0
aa(lp25
I1835
aI0
aI0
aa(lp26
I1716
aI0
aI0
aa(lp27
I705
aI0
aI0
aa(lp28
I667
aI0
aI0
aa(lp29
I1833
aI0
aI0
aa(lp30
I1886
aI0
aI0
aa(lp31
I881
aI0
aI0
aa(lp32
I1747
aI0
aI0
aa(lp33
I1484
aI0
aI0
aa(lp34
I926
aI0
aI0
aa(lp35
I702
aI0
aI0
aa(lp36
I1016
aI0
aI0
aa(lp37
I1374
aI0
aI0
aa(lp38
I1077
aI0
aI0
aa(lp39
I1477
aI0
aI0
aa(lp40
I1104
aI0
aI0
aa(lp41
I1214
aI0
aI0
aa(lp42
I1137
aI0
aI0
aa(lp43
I1685
aI0
aI0
aa(lp44
I876
aI0
aI0
aa(lp45
I642
aI0
aI0
aa(lp46
I1031
aI0
aI0
aa(lp47
I905
aI0
aI0
aa(lp48
I950
aI0
aI0
aa(lp49
I1900
aI0
aI0
aa(lp50
I368
aI0
aI0
aa(lp51
I2225
aI0
aI0
aa(lp52
I1734
aI0
aI0
aa(lp53
I746
aI0
aI0
aa(lp54
I1783
aI0
aI0
aa(lp55
I1243
aI0
aI0
aa(lp56
I2050
aI0
aI0
aa(lp57
I1928
aI0
aI0
aa(lp58
I1083
aI0
aI0
aa(lp59
I2141
aI0
aI0
aa(lp60
I814
aI0
aI0
aa(lp61
I2275
aI0
aI0
aa(lp62
I2086
aI0
aI0
aa(lp63
I1660
aI0
aI0
aa(lp64
I753
aI0
aI0
aa(lp65
I641
aI0
aI0
aa(lp66
I1360
aI0
aI0
aa(lp67
I759
aI0
aI0
aa(lp68
I724
aI0
aI0
aa.