(lp1
(lp2
I487
aI7
aI0
aa(lp3
I486
aI0
aI0
aa(lp4
I650
aI0
aI0
aa(lp5
I387
aI0
aI0
aa(lp6
I642
aI0
aI0
aa(lp7
I913
aI0
aI0
aa(lp8
I1052
aI0
aI0
aa(lp9
I705
aI0
aI0
aa(lp10
I1928
aI0
aI0
aa(lp11
I876
aI0
aI0
aa(lp12
I1214
aI0
aI0
aa(lp13
I1104
aI0
aI0
aa(lp14
I1900
aI0
aI0
aa(lp15
I702
aI0
aI0
aa(lp16
I1886
aI0
aI0
aa(lp17
I1555
aI0
aI0
aa(lp18
I814
aI0
aI0
aa(lp19
I905
aI0
aI0
aa(lp20
I560
aI0
aI0
aa(lp21
I2275
aI0
aI0
aa(lp22
I1484
aI0
aI0
aa(lp23
I1031
aI0
aI0
aa(lp24
I1079
aI0
aI0
aa(lp25
I2050
aI0
aI0
aa(lp26
I1077
aI0
aI0
aa(lp27
I2141
aI0
aI0
aa(lp28
I1083
aI0
aI0
aa(lp29
I1835
aI0
aI0
aa(lp30
I950
aI0
aI0
aa(lp31
I1690
aI0
aI0
aa(lp32
I689
aI0
aI0
aa(lp33
I759
aI0
aI0
aa(lp34
I1243
aI0
aI0
aa(lp35
I724
aI0
aI0
aa(lp36
I881
aI0
aI0
aa(lp37
I1783
aI0
aI0
aa(lp38
I1374
aI0
aI0
aa(lp39
I1016
aI0
aI0
aa(lp40
I1833
aI0
aI0
aa(lp41
I1685
aI0
aI0
aa(lp42
I746
aI0
aI0
aa(lp43
I1660
aI0
aI0
aa(lp44
I1477
aI0
aI0
aa(lp45
I1137
aI0
aI0
aa(lp46
I641
aI0
aI0
aa(lp47
I772
aI0
aI0
aa(lp48
I853
aI0
aI0
aa(lp49
I368
aI0
aI0
aa(lp50
I2086
aI0
aI0
aa(lp51
I1233
aI0
aI0
aa(lp52
I1679
aI0
aI0
aa(lp53
I926
aI0
aI0
aa(lp54
I1436
aI0
aI0
aa(lp55
I777
aI0
aI0
aa(lp56
I1601
aI0
aI0
aa(lp57
I835
aI0
aI0
aa(lp58
I724
aI0
aI0
aa(lp59
I1747
aI1
aI0
aa(lp60
I753
aI0
aI0
aa(lp61
I1360
aI0
aI0
aa(lp62
I1716
aI0
aI0
aa(lp63
I667
aI0
aI0
aa(lp64
I1419
aI0
aI0
aa(lp65
I2287
aI0
aI0
aa(lp66
I822
aI0
aI0
aa(lp67
I2225
aI0
aI0
aa(lp68
I1734
aI0
aI0
aa.