(lp1
(lp2
I21
aI1
aI0
aa(lp3
I13
aI0
aI0
aa(lp4
I16
aI3
aI0
aa(lp5
I26
aI1
aI0
aa(lp6
I28
aI6
aI0
aa(lp7
I34
aI6
aI0
aa(lp8
I27
aI1
aI0
aa(lp9
I13
aI1
aI0
aa(lp10
I26
aI0
aI0
aa(lp11
I16
aI3
aI0
aa(lp12
I7
aI0
aI0
aa(lp13
I21
aI0
aI0
aa(lp14
I41
aI1
aI0
aa(lp15
I28
aI3
aI0
aa(lp16
I17
aI3
aI0
aa(lp17
I11
aI1
aI0
aa(lp18
I16
aI1
aI0
aa(lp19
I26
aI0
aI0
aa(lp20
I17
aI1
aI0
aa(lp21
I22
aI0
aI0
aa(lp22
I28
aI1
aI0
aa(lp23
I41
aI0
aI0
aa(lp24
I25
aI8
aI0
aa(lp25
I13
aI2
aI0
aa(lp26
I25
aI2
aI0
aa(lp27
I17
aI1
aI0
aa(lp28
I15
aI0
aI0
aa(lp29
I26
aI1
aI0
aa(lp30
I33
aI1
aI0
aa(lp31
I13
aI1
aI0
aa(lp32
I19
aI1
aI0
aa(lp33
I19
aI6
aI0
aa(lp34
I11
aI4
aI0
aa(lp35
I13
aI0
aI0
aa(lp36
I12
aI0
aI0
aa(lp37
I20
aI7
aI0
aa(lp38
I11
aI1
aI0
aa(lp39
I19
aI4
aI0
aa(lp40
I19
aI1
aI0
aa(lp41
I13
aI4
aI0
aa(lp42
I12
aI5
aI0
aa(lp43
I13
aI2
aI0
aa(lp44
I18
aI4
aI0
aa(lp45
I8
aI1
aI0
aa(lp46
I8
aI1
aI0
aa(lp47
I33
aI1
aI0
aa(lp48
I11
aI3
aI0
aa(lp49
I22
aI0
aI0
aa(lp50
I22
aI1
aI0
aa(lp51
I22
aI1
aI0
aa(lp52
I22
aI6
aI0
aa(lp53
I22
aI4
aI0
aa(lp54
I35
aI12
aI0
aa(lp55
I28
aI4
aI0
aa(lp56
I22
aI6
aI0
aa(lp57
I32
aI0
aI0
aa(lp58
I18
aI0
aI0
aa(lp59
I16
aI2
aI0
aa(lp60
I21
aI4
aI0
aa(lp61
I28
aI8
aI0
aa(lp62
I20
aI0
aI0
aa(lp63
I38
aI2
aI0
aa(lp64
I33
aI2
aI0
aa(lp65
I25
aI4
aI0
aa(lp66
I17
aI0
aI0
aa(lp67
I25
aI3
aI0
aa(lp68
I12
aI0
aI0
aa(lp69
I12
aI0
aI0
aa(lp70
I20
aI3
aI0
aa(lp71
I22
aI0
aI0
aa(lp72
I28
aI1
aI0
aa(lp73
I27
aI0
aI0
aa(lp74
I33
aI5
aI0
aa(lp75
I27
aI5
aI0
aa(lp76
I30
aI4
aI0
aa(lp77
I30
aI1
aI0
aa(lp78
I40
aI5
aI0
aa(lp79
I33
aI6
aI0
aa(lp80
I26
aI4
aI0
aa(lp81
I18
aI3
aI0
aa(lp82
I8
aI0
aI0
aa(lp83
I17
aI4
aI0
aa(lp84
I21
aI4
aI0
aa(lp85
I23
aI4
aI0
aa(lp86
I17
aI8
aI0
aa(lp87
I12
aI0
aI0
aa(lp88
I22
aI0
aI0
aa(lp89
I18
aI0
aI0
aa(lp90
I30
aI7
aI0
aa(lp91
I13
aI0
aI0
aa(lp92
I17
aI0
aI0
aa(lp93
I18
aI2
aI0
aa(lp94
I22
aI6
aI0
aa(lp95
I17
aI2
aI0
aa(lp96
I14
aI1
aI0
aa(lp97
I15
aI8
aI0
aa(lp98
I22
aI5
aI0
aa(lp99
I18
aI6
aI0
aa(lp100
I17
aI0
aI0
aa(lp101
I15
aI2
aI0
aa(lp102
I12
aI4
aI0
aa(lp103
I31
aI5
aI0
aa(lp104
I14
aI1
aI0
aa(lp105
I16
aI2
aI0
aa(lp106
I23
aI2
aI0
aa(lp107
I29
aI2
aI0
aa(lp108
I31
aI6
aI0
aa(lp109
I21
aI1
aI0
aa(lp110
I20
aI10
aI0
aa(lp111
I17
aI2
aI0
aa(lp112
I18
aI3
aI0
aa(lp113
I7
aI0
aI0
aa(lp114
I13
aI3
aI0
aa(lp115
I13
aI0
aI0
aa(lp116
I23
aI2
aI0
aa(lp117
I12
aI1
aI0
aa(lp118
I12
aI1
aI0
aa(lp119
I5
aI1
aI0
aa(lp120
I19
aI2
aI0
aa(lp121
I21
aI1
aI0
aa(lp122
I11
aI0
aI0
aa(lp123
I29
aI2
aI0
aa(lp124
I28
aI0
aI0
aa(lp125
I20
aI0
aI0
aa(lp126
I27
aI3
aI0
aa(lp127
I16
aI2
aI0
aa(lp128
I26
aI2
aI0
aa(lp129
I30
aI1
aI0
aa(lp130
I32
aI4
aI0
aa(lp131
I15
aI0
aI0
aa(lp132
I25
aI2
aI0
aa(lp133
I31
aI1
aI0
aa(lp134
I46
aI4
aI0
aa(lp135
I36
aI2
aI0
aa(lp136
I9
aI0
aI0
aa(lp137
I26
aI4
aI0
aa(lp138
I21
aI3
aI0
aa(lp139
I22
aI0
aI0
aa(lp140
I39
aI3
aI0
aa(lp141
I27
aI3
aI0
aa(lp142
I20
aI1
aI0
aa(lp143
I22
aI1
aI0
aa(lp144
I31
aI0
aI0
aa(lp145
I21
aI0
aI0
aa(lp146
I25
aI4
aI0
aa(lp147
I37
aI7
aI0
aa(lp148
I10
aI1
aI0
aa(lp149
I26
aI0
aI0
aa(lp150
I24
aI7
aI0
aa(lp151
I28
aI1
aI0
aa(lp152
I32
aI0
aI0
aa(lp153
I19
aI1
aI0
aa(lp154
I33
aI9
aI0
aa(lp155
I35
aI1
aI0
aa(lp156
I18
aI1
aI0
aa(lp157
I17
aI0
aI0
aa(lp158
I38
aI0
aI0
aa(lp159
I23
aI0
aI0
aa(lp160
I24
aI1
aI0
aa(lp161
I10
aI1
aI0
aa(lp162
I26
aI4
aI0
aa(lp163
I14
aI5
aI0
aa(lp164
I19
aI3
aI0
aa(lp165
I22
aI0
aI0
aa(lp166
I14
aI0
aI0
aa(lp167
I24
aI4
aI0
aa(lp168
I12
aI1
aI0
aa(lp169
I11
aI0
aI0
aa(lp170
I13
aI0
aI0
aa(lp171
I15
aI1
aI0
aa(lp172
I17
aI1
aI0
aa(lp173
I17
aI2
aI0
aa(lp174
I18
aI0
aI0
aa(lp175
I19
aI0
aI0
aa(lp176
I30
aI6
aI0
aa(lp177
I16
aI0
aI0
aa(lp178
I39
aI5
aI0
aa(lp179
I14
aI0
aI0
aa(lp180
I21
aI3
aI0
aa(lp181
I18
aI1
aI0
aa(lp182
I11
aI1
aI0
aa(lp183
I11
aI0
aI0
aa(lp184
I13
aI0
aI0
aa(lp185
I21
aI0
aI0
aa(lp186
I16
aI2
aI0
aa(lp187
I16
aI3
aI0
aa(lp188
I14
aI1
aI0
aa(lp189
I28
aI1
aI0
aa(lp190
I22
aI7
aI0
aa(lp191
I20
aI1
aI0
aa(lp192
I12
aI2
aI0
aa(lp193
I26
aI1
aI0
aa(lp194
I19
aI1
aI0
aa(lp195
I21
aI1
aI0
aa(lp196
I14
aI0
aI0
aa(lp197
I37
aI13
aI0
aa(lp198
I19
aI1
aI0
aa(lp199
I8
aI1
aI0
aa(lp200
I24
aI3
aI0
aa(lp201
I20
aI0
aI0
aa(lp202
I21
aI4
aI0
aa(lp203
I36
aI2
aI0
aa(lp204
I29
aI1
aI0
aa(lp205
I16
aI1
aI0
aa(lp206
I33
aI8
aI0
aa(lp207
I11
aI0
aI0
aa(lp208
I18
aI1
aI0
aa(lp209
I21
aI2
aI0
aa(lp210
I36
aI5
aI0
aa(lp211
I19
aI2
aI0
aa(lp212
I22
aI0
aI0
aa(lp213
I21
aI2
aI0
aa(lp214
I24
aI7
aI0
aa(lp215
I19
aI0
aI0
aa(lp216
I26
aI1
aI0
aa(lp217
I11
aI0
aI0
aa(lp218
I36
aI10
aI0
aa(lp219
I16
aI6
aI0
aa(lp220
I6
aI0
aI0
aa(lp221
I13
aI3
aI0
aa(lp222
I12
aI0
aI0
aa(lp223
I19
aI1
aI0
aa(lp224
I8
aI0
aI0
aa(lp225
I9
aI0
aI0
aa(lp226
I8
aI0
aI0
aa(lp227
I13
aI0
aI0
aa(lp228
I13
aI4
aI0
aa(lp229
I17
aI2
aI0
aa(lp230
I17
aI2
aI0
aa(lp231
I11
aI1
aI0
aa(lp232
I18
aI1
aI0
aa(lp233
I10
aI3
aI0
aa(lp234
I14
aI3
aI0
aa(lp235
I13
aI0
aI0
aa(lp236
I20
aI0
aI0
aa(lp237
I19
aI0
aI0
aa(lp238
I6
aI0
aI0
aa(lp239
I22
aI3
aI0
aa(lp240
I17
aI1
aI0
aa(lp241
I16
aI2
aI0
aa(lp242
I30
aI7
aI0
aa(lp243
I17
aI0
aI0
aa(lp244
I4
aI0
aI0
aa(lp245
I15
aI3
aI0
aa(lp246
I13
aI0
aI0
aa(lp247
I11
aI2
aI0
aa(lp248
I11
aI0
aI0
aa(lp249
I28
aI1
aI0
aa(lp250
I18
aI1
aI0
aa(lp251
I12
aI0
aI0
aa(lp252
I21
aI3
aI0
aa(lp253
I13
aI2
aI0
aa(lp254
I14
aI1
aI0
aa(lp255
I26
aI3
aI0
aa(lp256
I32
aI1
aI0
aa(lp257
I38
aI13
aI0
aa(lp258
I26
aI0
aI0
aa(lp259
I16
aI5
aI0
aa(lp260
I14
aI2
aI0
aa(lp261
I33
aI5
aI0
aa(lp262
I20
aI0
aI0
aa(lp263
I7
aI0
aI0
aa(lp264
I9
aI1
aI0
aa(lp265
I15
aI0
aI0
aa(lp266
I14
aI3
aI0
aa(lp267
I27
aI3
aI0
aa(lp268
I14
aI0
aI0
aa(lp269
I17
aI1
aI0
aa(lp270
I17
aI1
aI0
aa(lp271
I13
aI3
aI0
aa(lp272
I10
aI1
aI0
aa(lp273
I21
aI0
aI0
aa(lp274
I9
aI0
aI0
aa(lp275
I6
aI0
aI0
aa(lp276
I13
aI1
aI0
aa(lp277
I9
aI3
aI0
aa(lp278
I8
aI0
aI0
aa(lp279
I6
aI0
aI0
aa(lp280
I16
aI5
aI0
aa(lp281
I6
aI0
aI0
aa(lp282
I8
aI0
aI0
aa(lp283
I9
aI1
aI0
aa(lp284
I7
aI0
aI0
aa(lp285
I15
aI1
aI0
aa(lp286
I15
aI0
aI0
aa(lp287
I17
aI0
aI0
aa(lp288
I9
aI1
aI0
aa(lp289
I20
aI0
aI0
aa(lp290
I22
aI2
aI0
aa(lp291
I13
aI0
aI0
aa(lp292
I9
aI0
aI0
aa(lp293
I25
aI1
aI0
aa(lp294
I12
aI0
aI0
aa(lp295
I12
aI1
aI0
aa(lp296
I17
aI0
aI0
aa(lp297
I10
aI0
aI0
aa(lp298
I13
aI0
aI0
aa(lp299
I16
aI2
aI0
aa(lp300
I11
aI0
aI0
aa(lp301
I22
aI5
aI0
aa(lp302
I16
aI4
aI0
aa(lp303
I19
aI0
aI0
aa(lp304
I11
aI4
aI0
aa(lp305
I8
aI0
aI0
aa(lp306
I18
aI0
aI0
aa(lp307
I15
aI0
aI0
aa(lp308
I23
aI1
aI0
aa(lp309
I16
aI1
aI0
aa(lp310
I11
aI2
aI0
aa(lp311
I14
aI3
aI0
aa(lp312
I13
aI1
aI0
aa(lp313
I18
aI4
aI0
aa(lp314
I13
aI0
aI0
aa(lp315
I24
aI0
aI0
aa(lp316
I15
aI1
aI0
aa(lp317
I20
aI2
aI0
aa(lp318
I9
aI0
aI0
aa(lp319
I21
aI4
aI0
aa(lp320
I10
aI0
aI0
aa(lp321
I17
aI1
aI0
aa(lp322
I10
aI0
aI0
aa(lp323
I12
aI1
aI0
aa(lp324
I22
aI0
aI0
aa(lp325
I21
aI0
aI0
aa(lp326
I19
aI0
aI0
aa(lp327
I17
aI0
aI0
aa(lp328
I19
aI3
aI0
aa(lp329
I18
aI2
aI0
aa(lp330
I9
aI0
aI0
aa(lp331
I20
aI1
aI0
aa(lp332
I17
aI0
aI0
aa(lp333
I20
aI2
aI0
aa(lp334
I19
aI3
aI0
aa(lp335
I20
aI1
aI0
aa(lp336
I12
aI0
aI0
aa(lp337
I13
aI0
aI0
aa(lp338
I19
aI0
aI0
aa(lp339
I19
aI1
aI0
aa(lp340
I14
aI0
aI0
aa(lp341
I21
aI4
aI0
aa(lp342
I21
aI2
aI0
aa(lp343
I17
aI2
aI0
aa(lp344
I15
aI0
aI0
aa(lp345
I44
aI6
aI0
aa(lp346
I18
aI5
aI0
aa(lp347
I18
aI0
aI0
aa(lp348
I24
aI1
aI0
aa(lp349
I16
aI1
aI0
aa(lp350
I25
aI1
aI0
aa(lp351
I15
aI1
aI0
aa.